; Function Attrs: mustprogress nofree norecurse nosync nounwind memory(readwrite, inaccessiblemem: none) uwtable
define noundef i32 @_ZNK8facebook5velox10expression9calculate6Parser26yy_syntax_error_arguments_ERKNS3_7contextEPNS3_11symbol_kind16symbol_kind_typeEi(ptr nocapture noundef nonnull readnone align 8 dereferenceable(40) %this, ptr nocapture noundef nonnull readonly align 8 dereferenceable(16) %yyctx, ptr noundef %yyarg, i32 noundef %yyargn) local_unnamed_addr #14 align 2 {
entry:
  %yyla_.i = getelementptr inbounds i8, ptr %yyctx, i64 8
  %0 = load ptr, ptr %yyla_.i, align 8
  %1 = load i32, ptr %0, align 4
  %cmp.i = icmp eq i32 %1, -2
  br i1 %cmp.i, label %return, label %if.then

if.then:                                          ; preds = %entry
  %tobool.not = icmp eq ptr %yyarg, null
  br i1 %tobool.not, label %if.end, label %if.then3

if.then3:                                         ; preds = %if.then
  store i32 %1, ptr %yyarg, align 4
  br label %if.end

if.end:                                           ; preds = %if.then3, %if.then
  %add.ptr = getelementptr inbounds i8, ptr %yyarg, i64 4
  %cond = select i1 %tobool.not, ptr null, ptr %add.ptr
  %sub = add nsw i32 %yyargn, -1
  %call6 = tail call noundef i32 @_ZNK8facebook5velox10expression9calculate6Parser7context15expected_tokensEPNS3_11symbol_kind16symbol_kind_typeEi(ptr noundef nonnull align 8 dereferenceable(16) %yyctx, ptr noundef %cond, i32 noundef %sub)
  %add = add nsw i32 %call6, 1
  br label %return

return:                                           ; preds = %entry, %if.end
  %retval.0 = phi i32 [ %add, %if.end ], [ 0, %entry ]
  ret i32 %retval.0
}